target datalayout = "e-m:e-p270:32:32-p271:32:32-p272:64:64-i64:64-i128:128-f80:128-n8:16:32:64-S128"
target triple = "x86_64-pc-linux-gnu"

%struct.anon = type { [3 x double], double }
%struct._generic_N_Vector = type { ptr, ptr, ptr }
%struct._N_VectorContent_Serial = type { i64, i32, ptr }

; Function Attrs: nounwind uwtable
define internal i32 @rhsQ(double noundef %0, ptr noundef %1, ptr noundef %2, ptr noundef %3, ptr noundef %4) #0 {
  %6 = alloca double, align 8
  %7 = alloca ptr, align 8
  %8 = alloca ptr, align 8
  %9 = alloca ptr, align 8
  %10 = alloca ptr, align 8
  %11 = alloca ptr, align 8
  store double %0, ptr %6, align 8, !tbaa !20
  store ptr %1, ptr %7, align 8, !tbaa !16
  store ptr %2, ptr %8, align 8, !tbaa !16
  store ptr %3, ptr %9, align 8, !tbaa !16
  store ptr %4, ptr %10, align 8, !tbaa !11
  call void @llvm.lifetime.start.p0(i64 8, ptr %11) #8
  %12 = load ptr, ptr %10, align 8, !tbaa !11
  store ptr %12, ptr %11, align 8, !tbaa !11
  %13 = load ptr, ptr %7, align 8, !tbaa !16
  %14 = getelementptr inbounds nuw %struct._generic_N_Vector, ptr %13, i32 0, i32 0
  %15 = load ptr, ptr %14, align 8, !tbaa !26
  %16 = getelementptr inbounds nuw %struct._N_VectorContent_Serial, ptr %15, i32 0, i32 2
  %17 = load ptr, ptr %16, align 8, !tbaa !29
  %18 = getelementptr inbounds double, ptr %17, i64 2
  %19 = load double, ptr %18, align 8, !tbaa !20
  %20 = load ptr, ptr %9, align 8, !tbaa !16
  %21 = getelementptr inbounds nuw %struct._generic_N_Vector, ptr %20, i32 0, i32 0
  %22 = load ptr, ptr %21, align 8, !tbaa !26
  %23 = getelementptr inbounds nuw %struct._N_VectorContent_Serial, ptr %22, i32 0, i32 2
  %24 = load ptr, ptr %23, align 8, !tbaa !29
  %25 = getelementptr inbounds double, ptr %24, i64 0
  store double %19, ptr %25, align 8, !tbaa !20
  %26 = load ptr, ptr %11, align 8, !tbaa !11
  %27 = getelementptr inbounds nuw %struct.anon, ptr %26, i32 0, i32 1
  %28 = load double, ptr %27, align 8, !tbaa !22
  %29 = load ptr, ptr %7, align 8, !tbaa !16
  %30 = getelementptr inbounds nuw %struct._generic_N_Vector, ptr %29, i32 0, i32 0
  %31 = load ptr, ptr %30, align 8, !tbaa !26
  %32 = getelementptr inbounds nuw %struct._N_VectorContent_Serial, ptr %31, i32 0, i32 2
  %33 = load ptr, ptr %32, align 8, !tbaa !29
  %34 = getelementptr inbounds double, ptr %33, i64 0
  %35 = load double, ptr %34, align 8, !tbaa !20
  %36 = load ptr, ptr %7, align 8, !tbaa !16
  %37 = getelementptr inbounds nuw %struct._generic_N_Vector, ptr %36, i32 0, i32 0
  %38 = load ptr, ptr %37, align 8, !tbaa !26
  %39 = getelementptr inbounds nuw %struct._N_VectorContent_Serial, ptr %38, i32 0, i32 2
  %40 = load ptr, ptr %39, align 8, !tbaa !29
  %41 = getelementptr inbounds double, ptr %40, i64 0
  %42 = load double, ptr %41, align 8, !tbaa !20
  %43 = load ptr, ptr %7, align 8, !tbaa !16
  %44 = getelementptr inbounds nuw %struct._generic_N_Vector, ptr %43, i32 0, i32 0
  %45 = load ptr, ptr %44, align 8, !tbaa !26
  %46 = getelementptr inbounds nuw %struct._N_VectorContent_Serial, ptr %45, i32 0, i32 2
  %47 = load ptr, ptr %46, align 8, !tbaa !29
  %48 = getelementptr inbounds double, ptr %47, i64 1
  %49 = load double, ptr %48, align 8, !tbaa !20
  %50 = load ptr, ptr %7, align 8, !tbaa !16
  %51 = getelementptr inbounds nuw %struct._generic_N_Vector, ptr %50, i32 0, i32 0
  %52 = load ptr, ptr %51, align 8, !tbaa !26
  %53 = getelementptr inbounds nuw %struct._N_VectorContent_Serial, ptr %52, i32 0, i32 2
  %54 = load ptr, ptr %53, align 8, !tbaa !29
  %55 = getelementptr inbounds double, ptr %54, i64 1
  %56 = load double, ptr %55, align 8, !tbaa !20
  %57 = fmul double %49, %56
  %58 = call double @llvm.fmuladd.f64(double %35, double %42, double %57)
  %59 = load ptr, ptr %7, align 8, !tbaa !16
  %60 = getelementptr inbounds nuw %struct._generic_N_Vector, ptr %59, i32 0, i32 0
  %61 = load ptr, ptr %60, align 8, !tbaa !26
  %62 = getelementptr inbounds nuw %struct._N_VectorContent_Serial, ptr %61, i32 0, i32 2
  %63 = load ptr, ptr %62, align 8, !tbaa !29
  %64 = getelementptr inbounds double, ptr %63, i64 2
  %65 = load double, ptr %64, align 8, !tbaa !20
  %66 = load ptr, ptr %7, align 8, !tbaa !16
  %67 = getelementptr inbounds nuw %struct._generic_N_Vector, ptr %66, i32 0, i32 0
  %68 = load ptr, ptr %67, align 8, !tbaa !26
  %69 = getelementptr inbounds nuw %struct._N_VectorContent_Serial, ptr %68, i32 0, i32 2
  %70 = load ptr, ptr %69, align 8, !tbaa !29
  %71 = getelementptr inbounds double, ptr %70, i64 2
  %72 = load double, ptr %71, align 8, !tbaa !20
  %73 = call double @llvm.fmuladd.f64(double %65, double %72, double %58)
  %74 = fmul double %28, %73
  %75 = load ptr, ptr %9, align 8, !tbaa !16
  %76 = getelementptr inbounds nuw %struct._generic_N_Vector, ptr %75, i32 0, i32 0
  %77 = load ptr, ptr %76, align 8, !tbaa !26
  %78 = getelementptr inbounds nuw %struct._N_VectorContent_Serial, ptr %77, i32 0, i32 2
  %79 = load ptr, ptr %78, align 8, !tbaa !29
  %80 = getelementptr inbounds double, ptr %79, i64 1
  store double %74, ptr %80, align 8, !tbaa !20
  call void @llvm.lifetime.end.p0(i64 8, ptr %11) #8
  ret i32 0
}