; Function Attrs: mustprogress nofree norecurse nosync nounwind willreturn memory(readwrite, inaccessiblemem: none) uwtable
define internal noundef i32 @rhsQ(double %0, ptr noundef readonly captures(none) %1, ptr readnone captures(none) %2, ptr noundef readonly captures(none) %3, ptr noundef readonly captures(none) %4) #4 {
  %6 = load ptr, ptr %1, align 8, !tbaa !17
  %7 = getelementptr inbounds nuw i8, ptr %6, i64 16
  %8 = load ptr, ptr %7, align 8, !tbaa !20
  %9 = getelementptr inbounds nuw i8, ptr %8, i64 16
  %10 = load double, ptr %9, align 8, !tbaa !11
  %11 = load ptr, ptr %3, align 8, !tbaa !17
  %12 = getelementptr inbounds nuw i8, ptr %11, i64 16
  %13 = load ptr, ptr %12, align 8, !tbaa !20
  store double %10, ptr %13, align 8, !tbaa !11
  %14 = getelementptr inbounds nuw i8, ptr %4, i64 24
  %15 = load double, ptr %14, align 8, !tbaa !13
  %16 = load double, ptr %8, align 8, !tbaa !11
  %17 = getelementptr inbounds nuw i8, ptr %8, i64 8
  %18 = load double, ptr %17, align 8, !tbaa !11
  %19 = fmul double %18, %18
  %20 = tail call double @llvm.fmuladd.f64(double %16, double %16, double %19)
  %21 = tail call double @llvm.fmuladd.f64(double %10, double %10, double %20)
  %22 = fmul double %15, %21
  %23 = getelementptr inbounds nuw i8, ptr %13, i64 8
  store double %22, ptr %23, align 8, !tbaa !11
  ret i32 0
}